target datalayout = "e-m:e-p270:32:32-p271:32:32-p272:64:64-i64:64-i128:128-f80:128-n8:16:32:64-S128"
target triple = "x86_64-pc-linux-gnu"

%struct.strmap_entry = type { %struct.hashmap_entry, ptr, ptr }
%struct.hashmap_entry = type { ptr, i32 }
%struct.strmap = type { %struct.hashmap, ptr, i8 }
%struct.hashmap = type { ptr, ptr, ptr, i32, i32, i32, i32, i8 }

@.str = private unnamed_addr constant [27 x i8] c"size_t overflow: %lu + %lu\00", align 1

; Function Attrs: inlinehint nounwind uwtable
define internal void @hashmap_entry_init(ptr noundef %0, i32 noundef %1) #5 {
  %3 = alloca ptr, align 8
  %4 = alloca i32, align 4
  store ptr %0, ptr %3, align 8, !tbaa !8
  store i32 %1, ptr %4, align 4, !tbaa !21
  %5 = load i32, ptr %4, align 4, !tbaa !21
  %6 = load ptr, ptr %3, align 8, !tbaa !8
  %7 = getelementptr inbounds nuw %struct.hashmap_entry, ptr %6, i32 0, i32 1
  store i32 %5, ptr %7, align 8, !tbaa !32
  %8 = load ptr, ptr %3, align 8, !tbaa !8
  %9 = getelementptr inbounds nuw %struct.hashmap_entry, ptr %8, i32 0, i32 0
  store ptr null, ptr %9, align 8, !tbaa !33
  ret void
}

; Function Attrs: inlinehint nounwind uwtable
define internal i64 @st_add(i64 noundef %0, i64 noundef %1) #5 {
  %3 = alloca i64, align 8
  %4 = alloca i64, align 8
  store i64 %0, ptr %3, align 8, !tbaa !30
  store i64 %1, ptr %4, align 8, !tbaa !30
  %5 = load i64, ptr %4, align 8, !tbaa !30
  %6 = load i64, ptr %3, align 8, !tbaa !30
  %7 = sub i64 -1, %6
  %8 = icmp ugt i64 %5, %7
  br i1 %8, label %9, label %12

9:                                                ; preds = %2
  %10 = load i64, ptr %3, align 8, !tbaa !30
  %11 = load i64, ptr %4, align 8, !tbaa !30
  call void (ptr, ...) @die(ptr noundef @.str, i64 noundef %10, i64 noundef %11) #10
  unreachable

12:                                               ; preds = %2
  %13 = load i64, ptr %3, align 8, !tbaa !30
  %14 = load i64, ptr %4, align 8, !tbaa !30
  %15 = add i64 %13, %14
  ret i64 %15
}

; Function Attrs: nounwind uwtable
define internal ptr @create_entry(ptr noundef %0, ptr noundef %1, ptr noundef %2) #0 {
  %4 = alloca ptr, align 8
  %5 = alloca ptr, align 8
  %6 = alloca ptr, align 8
  %7 = alloca ptr, align 8
  %8 = alloca i64, align 8
  %9 = alloca i64, align 8
  store ptr %0, ptr %4, align 8, !tbaa !17
  store ptr %1, ptr %5, align 8, !tbaa !29
  store ptr %2, ptr %6, align 8, !tbaa !4
  call void @llvm.lifetime.start.p0(i64 8, ptr %7) #8
  %10 = load ptr, ptr %4, align 8, !tbaa !17
  %11 = getelementptr inbounds nuw %struct.strmap, ptr %10, i32 0, i32 2
  %12 = load i8, ptr %11, align 8
  %13 = and i8 %12, 1
  %14 = zext i8 %13 to i32
  %15 = icmp ne i32 %14, 0
  br i1 %15, label %16, label %58

16:                                               ; preds = %3
  %17 = load ptr, ptr %4, align 8, !tbaa !17
  %18 = getelementptr inbounds nuw %struct.strmap, ptr %17, i32 0, i32 1
  %19 = load ptr, ptr %18, align 8, !tbaa !22
  %20 = icmp ne ptr %19, null
  br i1 %20, label %39, label %21

21:                                               ; preds = %16
  br label %22

22:                                               ; preds = %21
  call void @llvm.lifetime.start.p0(i64 8, ptr %8) #8
  %23 = load ptr, ptr %5, align 8, !tbaa !29
  %24 = call i64 @strlen(ptr noundef %23) #9
  store i64 %24, ptr %8, align 8, !tbaa !30
  %25 = load i64, ptr %8, align 8, !tbaa !30
  %26 = call i64 @st_add(i64 noundef 32, i64 noundef %25)
  %27 = call i64 @st_add(i64 noundef %26, i64 noundef 1)
  %28 = call ptr @xcalloc(i64 noundef 1, i64 noundef %27)
  store ptr %28, ptr %7, align 8, !tbaa !10
  %29 = load ptr, ptr %7, align 8, !tbaa !10
  %30 = getelementptr inbounds %struct.strmap_entry, ptr %29, i64 1
  %31 = load ptr, ptr %5, align 8, !tbaa !29
  %32 = load i64, ptr %8, align 8, !tbaa !30
  call void @llvm.memcpy.p0.p0.i64(ptr align 8 %30, ptr align 1 %31, i64 %32, i1 false)
  %33 = load ptr, ptr %7, align 8, !tbaa !10
  %34 = getelementptr inbounds %struct.strmap_entry, ptr %33, i64 1
  %35 = load ptr, ptr %7, align 8, !tbaa !10
  %36 = getelementptr inbounds nuw %struct.strmap_entry, ptr %35, i32 0, i32 1
  store ptr %34, ptr %36, align 8, !tbaa !12
  call void @llvm.lifetime.end.p0(i64 8, ptr %8) #8
  br label %37

37:                                               ; preds = %22
  br label %38

38:                                               ; preds = %37
  br label %57

39:                                               ; preds = %16
  call void @llvm.lifetime.start.p0(i64 8, ptr %9) #8
  %40 = load ptr, ptr %5, align 8, !tbaa !29
  %41 = call i64 @strlen(ptr noundef %40) #9
  %42 = call i64 @st_add(i64 noundef %41, i64 noundef 1)
  store i64 %42, ptr %9, align 8, !tbaa !30
  %43 = load ptr, ptr %4, align 8, !tbaa !17
  %44 = getelementptr inbounds nuw %struct.strmap, ptr %43, i32 0, i32 1
  %45 = load ptr, ptr %44, align 8, !tbaa !22
  %46 = load i64, ptr %9, align 8, !tbaa !30
  %47 = call i64 @st_add(i64 noundef 32, i64 noundef %46)
  %48 = call ptr @mem_pool_alloc(ptr noundef %45, i64 noundef %47)
  store ptr %48, ptr %7, align 8, !tbaa !10
  %49 = load ptr, ptr %7, align 8, !tbaa !10
  %50 = getelementptr inbounds %struct.strmap_entry, ptr %49, i64 1
  %51 = load ptr, ptr %5, align 8, !tbaa !29
  %52 = load i64, ptr %9, align 8, !tbaa !30
  call void @llvm.memcpy.p0.p0.i64(ptr align 8 %50, ptr align 1 %51, i64 %52, i1 false)
  %53 = load ptr, ptr %7, align 8, !tbaa !10
  %54 = getelementptr inbounds %struct.strmap_entry, ptr %53, i64 1
  %55 = load ptr, ptr %7, align 8, !tbaa !10
  %56 = getelementptr inbounds nuw %struct.strmap_entry, ptr %55, i32 0, i32 1
  store ptr %54, ptr %56, align 8, !tbaa !12
  call void @llvm.lifetime.end.p0(i64 8, ptr %9) #8
  br label %57

57:                                               ; preds = %39, %38
  br label %71

58:                                               ; preds = %3
  %59 = load ptr, ptr %4, align 8, !tbaa !17
  %60 = getelementptr inbounds nuw %struct.strmap, ptr %59, i32 0, i32 1
  %61 = load ptr, ptr %60, align 8, !tbaa !22
  %62 = icmp ne ptr %61, null
  br i1 %62, label %65, label %63

63:                                               ; preds = %58
  %64 = call ptr @xmalloc(i64 noundef 32)
  store ptr %64, ptr %7, align 8, !tbaa !10
  br label %70

65:                                               ; preds = %58
  %66 = load ptr, ptr %4, align 8, !tbaa !17
  %67 = getelementptr inbounds nuw %struct.strmap, ptr %66, i32 0, i32 1
  %68 = load ptr, ptr %67, align 8, !tbaa !22
  %69 = call ptr @mem_pool_alloc(ptr noundef %68, i64 noundef 32)
  store ptr %69, ptr %7, align 8, !tbaa !10
  br label %70

70:                                               ; preds = %65, %63
  br label %71

71:                                               ; preds = %70, %57
  %72 = load ptr, ptr %7, align 8, !tbaa !10
  %73 = getelementptr inbounds nuw %struct.strmap_entry, ptr %72, i32 0, i32 0
  %74 = load ptr, ptr %5, align 8, !tbaa !29
  %75 = call i32 @strhash(ptr noundef %74)
  call void @hashmap_entry_init(ptr noundef %73, i32 noundef %75)
  %76 = load ptr, ptr %4, align 8, !tbaa !17
  %77 = getelementptr inbounds nuw %struct.strmap, ptr %76, i32 0, i32 2
  %78 = load i8, ptr %77, align 8
  %79 = and i8 %78, 1
  %80 = zext i8 %79 to i32
  %81 = icmp ne i32 %80, 0
  br i1 %81, label %86, label %82

82:                                               ; preds = %71
  %83 = load ptr, ptr %5, align 8, !tbaa !29
  %84 = load ptr, ptr %7, align 8, !tbaa !10
  %85 = getelementptr inbounds nuw %struct.strmap_entry, ptr %84, i32 0, i32 1
  store ptr %83, ptr %85, align 8, !tbaa !12
  br label %86

86:                                               ; preds = %82, %71
  %87 = load ptr, ptr %6, align 8, !tbaa !4
  %88 = load ptr, ptr %7, align 8, !tbaa !10
  %89 = getelementptr inbounds nuw %struct.strmap_entry, ptr %88, i32 0, i32 2
  store ptr %87, ptr %89, align 8, !tbaa !26
  %90 = load ptr, ptr %7, align 8, !tbaa !10
  call void @llvm.lifetime.end.p0(i64 8, ptr %7) #8
  ret ptr %90
}