; Function Attrs: nounwind uwtable
define internal fastcc ptr @create_entry(ptr noundef readonly captures(none) %0, ptr noundef %1, ptr noundef %2) unnamed_addr #5 {
  %4 = getelementptr inbounds nuw i8, ptr %0, i64 56
  %5 = load i8, ptr %4, align 8
  %6 = and i8 %5, 1
  %.not = icmp eq i8 %6, 0
  %7 = getelementptr inbounds nuw i8, ptr %0, i64 48
  %8 = load ptr, ptr %7, align 8, !tbaa !13
  %.not27 = icmp eq ptr %8, null
  br i1 %.not, label %30, label %9

9:                                                ; preds = %3
  %10 = tail call i64 @strlen(ptr noundef nonnull dereferenceable(1) %1) #9
  br i1 %.not27, label %11, label %20

11:                                               ; preds = %9
  %12 = icmp ugt i64 %10, -33
  br i1 %12, label %13, label %st_add.exit

13:                                               ; preds = %11
  tail call void (ptr, ...) @die(ptr noundef nonnull @.str, i64 noundef 32, i64 noundef %10) #11
  unreachable

st_add.exit:                                      ; preds = %11
  %14 = icmp eq i64 %10, -33
  br i1 %14, label %15, label %st_add.exit30

15:                                               ; preds = %st_add.exit
  tail call void (ptr, ...) @die(ptr noundef nonnull @.str, i64 noundef -1, i64 noundef 1) #11
  unreachable

st_add.exit30:                                    ; preds = %st_add.exit
  %16 = add nuw i64 %10, 33
  %17 = tail call ptr @xcalloc(i64 noundef 1, i64 noundef %16) #10
  %18 = getelementptr inbounds nuw i8, ptr %17, i64 32
  tail call void @llvm.memcpy.p0.p0.i64(ptr nonnull align 8 %18, ptr nonnull align 1 %1, i64 %10, i1 false)
  %19 = getelementptr inbounds nuw i8, ptr %17, i64 16
  store ptr %18, ptr %19, align 8, !tbaa !4
  br label %35

20:                                               ; preds = %9
  %21 = icmp eq i64 %10, -1
  br i1 %21, label %22, label %st_add.exit31

22:                                               ; preds = %20
  tail call void (ptr, ...) @die(ptr noundef nonnull @.str, i64 noundef -1, i64 noundef 1) #11
  unreachable

st_add.exit31:                                    ; preds = %20
  %23 = add nuw i64 %10, 1
  %24 = icmp ugt i64 %10, -34
  br i1 %24, label %25, label %st_add.exit32

25:                                               ; preds = %st_add.exit31
  tail call void (ptr, ...) @die(ptr noundef nonnull @.str, i64 noundef 32, i64 noundef %23) #11
  unreachable

st_add.exit32:                                    ; preds = %st_add.exit31
  %26 = add nuw i64 %10, 33
  %27 = tail call ptr @mem_pool_alloc(ptr noundef nonnull %8, i64 noundef %26) #10
  %28 = getelementptr inbounds nuw i8, ptr %27, i64 32
  tail call void @llvm.memcpy.p0.p0.i64(ptr noundef nonnull align 8 dereferenceable(1) %28, ptr noundef nonnull align 1 dereferenceable(1) %1, i64 %23, i1 false)
  %29 = getelementptr inbounds nuw i8, ptr %27, i64 16
  store ptr %28, ptr %29, align 8, !tbaa !4
  br label %35

30:                                               ; preds = %3
  br i1 %.not27, label %31, label %33

31:                                               ; preds = %30
  %32 = tail call ptr @xmalloc(i64 noundef 32) #10
  br label %35

33:                                               ; preds = %30
  %34 = tail call ptr @mem_pool_alloc(ptr noundef nonnull %8, i64 noundef 32) #10
  br label %35

35:                                               ; preds = %31, %33, %st_add.exit30, %st_add.exit32
  %.0 = phi ptr [ %27, %st_add.exit32 ], [ %17, %st_add.exit30 ], [ %34, %33 ], [ %32, %31 ]
  %36 = tail call i32 @strhash(ptr noundef %1) #10
  %37 = getelementptr inbounds nuw i8, ptr %.0, i64 8
  store i32 %36, ptr %37, align 8, !tbaa !21
  store ptr null, ptr %.0, align 8, !tbaa !22
  %38 = load i8, ptr %4, align 8
  %39 = and i8 %38, 1
  %.not29 = icmp eq i8 %39, 0
  br i1 %.not29, label %40, label %42

40:                                               ; preds = %35
  %41 = getelementptr inbounds nuw i8, ptr %.0, i64 16
  store ptr %1, ptr %41, align 8, !tbaa !4
  br label %42

42:                                               ; preds = %40, %35
  %43 = getelementptr inbounds nuw i8, ptr %.0, i64 24
  store ptr %2, ptr %43, align 8, !tbaa !20
  ret ptr %.0
}